target datalayout = "e-m:e-p270:32:32-p271:32:32-p272:64:64-i64:64-i128:128-f80:128-n8:16:32:64-S128"
target triple = "x86_64-pc-linux-gnu"

@exit_code = dso_local global i32 0, align 4
@quiet_flag = dso_local global i32 0, align 4
@stdout = external global ptr, align 8
@.str.212 = private unnamed_addr constant [25 x i8] c"slurm_load_slurmd_status\00", align 1

; Function Attrs: nounwind uwtable
define internal void @_print_slurmd(ptr noundef %0) #0 {
  %2 = alloca ptr, align 8
  %3 = alloca ptr, align 8
  store ptr %0, ptr %2, align 8
  call void @llvm.lifetime.start.p0(i64 8, ptr %3) #12
  %4 = call i32 @slurm_load_slurmd_status(ptr noundef %3)
  %5 = icmp ne i32 %4, 0
  br i1 %5, label %6, label %11

6:                                                ; preds = %1
  store i32 1, ptr @exit_code, align 4
  %7 = load i32, ptr @quiet_flag, align 4
  %8 = icmp ne i32 %7, 1
  br i1 %8, label %9, label %10

9:                                                ; preds = %6
  call void @slurm_perror(ptr noundef @.str.212)
  br label %10

10:                                               ; preds = %9, %6
  br label %15

11:                                               ; preds = %1
  %12 = load ptr, ptr @stdout, align 8
  %13 = load ptr, ptr %3, align 8
  call void @slurm_print_slurmd_status(ptr noundef %12, ptr noundef %13)
  %14 = load ptr, ptr %3, align 8
  call void @slurm_free_slurmd_status(ptr noundef %14)
  br label %15

15:                                               ; preds = %11, %10
  call void @llvm.lifetime.end.p0(i64 8, ptr %3) #12
  ret void
}