; Function Attrs: nounwind uwtable
define internal fastcc void @_print_slurmd() unnamed_addr #8 {
  %1 = alloca ptr, align 8
  call void @llvm.lifetime.start.p0(i64 8, ptr nonnull %1) #18
  %2 = call i32 @slurm_load_slurmd_status(ptr noundef nonnull %1) #18
  %.not = icmp eq i32 %2, 0
  br i1 %.not, label %6, label %3

3:                                                ; preds = %0
  store i32 1, ptr @exit_code, align 4
  %4 = load i32, ptr @quiet_flag, align 4
  %.not1 = icmp eq i32 %4, 1
  br i1 %.not1, label %10, label %5

5:                                                ; preds = %3
  call void @slurm_perror(ptr noundef nonnull @.str.212) #18
  br label %10

6:                                                ; preds = %0
  %7 = load ptr, ptr @stdout, align 8
  %8 = load ptr, ptr %1, align 8
  call void @slurm_print_slurmd_status(ptr noundef %7, ptr noundef %8) #18
  %9 = load ptr, ptr %1, align 8
  call void @slurm_free_slurmd_status(ptr noundef %9) #18
  br label %10

10:                                               ; preds = %3, %5, %6
  call void @llvm.lifetime.end.p0(i64 8, ptr nonnull %1) #18
  ret void
}